Certificate:
    Data:
        Version: 3 (0x2)
        Serial Number: 4609 (0x1201)
    Signature Algorithm: sha256WithRSAEncryption
        Issuer: C=CN, O=\xE6\x9D\xAD\xE5\xB7\x9E\xE5\xA4\xA9\xE8\xB0\xB7\xE4\xBF\xA1\xE6\x81\xAF\xE7\xA7\x91\xE6\x8A\x80\xE6\x9C\x89\xE9\x99\x90\xE5\x85\xAC\xE5\x8F\xB8(\xE5\xAE\xA2\xE6\x88\xB7\xE7\xAB\xAF\xE6\xB5\x8B\xE8\xAF\x95), L=\xE6\x9D\xAD\xE5\xB7\x9E\xE5\xB8\x82, ST=\xE6\xB5\x99\xE6\xB1\x9F\xE7\x9C\x81, CN=TGRoot_01
        Validity
            Not Before: Aug  6 11:56:10 2019 GMT
            Not After : Jul 29 11:56:10 2049 GMT
        Subject: C=CN, O=\xE6\x9D\xAD\xE5\xB7\x9E\xE5\xA4\xA9\xE8\xB0\xB7\xE4\xBF\xA1\xE6\x81\xAF\xE7\xA7\x91\xE6\x8A\x80\xE6\x9C\x89\xE9\x99\x90\xE5\x85\xAC\xE5\x8F\xB8(\xE5\xAE\xA2\xE6\x88\xB7\xE7\xAB\xAF\xE6\xB5\x8B\xE8\xAF\x95), CN=TGCA_01, L=\xE6\x9D\xAD\xE5\xB7\x9E\xE5\xB8\x82, ST=\xE6\xB5\x99\xE6\xB1\x9F\xE7\x9C\x81
        Subject Public Key Info:
            Public Key Algorithm: rsaEncryption
                Public-Key: (4096 bit)
                Modulus:
                    00:a2:f6:fc:96:c0:98:34:8a:ee:c8:01:12:d0:6c:
                    d5:0c:d5:28:ed:1e:f6:bb:1f:b1:97:93:b4:24:22:
                    3c:a4:cd:80:83:1c:f6:a0:d8:23:a1:62:c0:33:17:
                    7a:8e:1e:57:63:00:3b:68:21:ad:b0:c1:f4:25:06:
                    aa:3d:45:d0:d1:18:ac:4f:6f:bf:78:45:25:be:0c:
                    2e:bd:c2:f8:46:56:f7:04:b9:75:65:36:41:9e:69:
                    ff:eb:99:1d:8d:ff:57:9c:39:6f:5d:c2:58:94:d2:
                    a7:f5:98:e2:b0:a9:31:f9:53:72:91:43:80:c3:b0:
                    1b:f6:3e:7a:51:e0:eb:43:d7:d7:ef:7b:ec:69:9a:
                    9b:f9:91:f2:a8:15:48:56:eb:e5:49:6d:a8:97:f9:
                    d7:d7:4e:ca:e5:6a:5c:10:23:44:de:35:c5:b3:e8:
                    c5:1d:5a:9a:e6:9c:65:d9:1e:ab:a0:92:44:46:01:
                    bd:bd:b4:06:93:e2:9c:1c:b1:48:d7:bf:e2:44:6d:
                    2c:b5:e0:ce:b7:87:d6:a0:a7:42:c2:31:d4:97:8d:
                    72:a8:4f:33:e2:62:27:04:de:c6:b7:f5:ac:6c:8f:
                    89:f9:77:51:58:10:30:56:b5:01:c3:1b:9c:83:c6:
                    82:30:b8:3b:e2:e9:dd:06:ad:82:63:72:0c:9e:77:
                    09:f0:1e:b3:0c:aa:df:bc:73:b2:29:7f:28:a4:47:
                    83:ca:95:96:2c:94:0f:a3:7d:bf:9e:85:d0:8d:a9:
                    f6:ce:fc:ed:0b:89:22:2a:b7:12:13:f8:c6:d2:7a:
                    49:29:e1:70:31:06:8a:26:26:0c:96:f6:dc:a1:82:
                    83:8a:1c:7d:10:16:fb:26:22:df:7b:8d:4e:c1:7c:
                    e7:b4:27:e9:e5:ba:2d:5f:f5:87:09:ba:fc:7c:c6:
                    0c:54:12:1c:0c:54:1f:47:5d:22:af:c2:cf:54:81:
                    8b:7f:30:ac:44:13:82:79:91:63:a2:8c:f5:a4:de:
                    36:36:41:61:18:89:09:b8:28:29:eb:64:58:aa:21:
                    8d:e1:4d:76:03:e5:f4:ff:31:c3:01:b9:89:b5:92:
                    8f:44:ed:0e:0c:70:64:0b:f2:4f:4c:9a:a8:2b:ed:
                    01:85:3e:d0:4f:40:47:7f:46:97:d5:10:ee:b8:6e:
                    a0:c8:ad:b5:2a:1d:56:c5:9b:02:c7:c2:52:d7:1f:
                    3a:93:b3:12:38:a0:ba:59:cc:f1:48:c9:25:15:aa:
                    5e:89:41:a5:1d:23:58:cf:3f:32:ee:ec:8c:66:f2:
                    f4:2c:66:61:e0:3a:66:e5:48:b3:06:07:3e:b5:1a:
                    c2:55:59:df:d1:15:dd:fc:3c:de:11:5e:ea:8b:c6:
                    07:fd:ad
                Exponent: 65537 (0x10001)
        X509v3 extensions:
            X509v3 Subject Key Identifier: 
                0B:A6:5A:E8:C0:36:86:38:66:EC:A0:AC:8A:92:0E:A6:8A:00:2C:60
            X509v3 Authority Key Identifier: 
                keyid:77:6E:27:B3:80:A8:D2:2A:B3:49:14:70:2A:39:78:6C:45:8B:42:4D

            X509v3 Basic Constraints: critical
                CA:TRUE
            X509v3 Key Usage: critical
                Digital Signature, Certificate Sign, CRL Sign
    Signature Algorithm: sha256WithRSAEncryption
         39:af:cc:82:e3:a1:b0:28:1a:06:eb:51:f8:b6:73:0a:d5:5b:
         6a:32:2e:79:bd:ea:ba:60:24:0e:fb:59:02:36:df:6b:00:17:
         59:3b:13:81:c4:69:28:f5:61:8f:73:53:8c:c3:71:ff:85:59:
         1c:a6:37:2e:d5:f5:2b:ae:a4:f2:3b:5f:c3:28:ee:43:4a:57:
         d2:0e:13:a6:59:07:a4:07:88:30:9b:8b:ec:8e:c2:54:66:8f:
         e4:21:1e:8d:ad:ff:c0:7d:dd:3a:53:28:55:03:48:14:70:f2:
         b2:d8:1b:72:ba:39:f7:21:cc:3c:66:00:de:40:dd:b9:0a:19:
         6b:29:3d:29:3b:71:67:45:46:3e:05:ac:b1:5c:17:94:2f:6c:
         69:44:55:96:7f:03:6a:91:14:f7:99:21:95:9e:31:8a:37:00:
         4b:77:3f:d3:12:e9:7c:cf:77:39:e5:e3:03:c6:db:21:46:8e:
         22:17:04:7a:43:fc:47:af:1f:71:0e:1a:f6:d7:45:49:68:3f:
         9f:17:5f:a7:9b:67:4f:57:13:67:ad:7a:6b:8f:60:4f:59:18:
         46:b1:cb:ff:23:ce:d2:dc:19:07:2f:50:2f:58:fd:cd:3f:63:
         5b:bf:51:d8:08:73:ce:bb:a0:bc:b9:62:69:2c:6c:8c:1a:01:
         6f:60:2c:d5:8b:83:bc:07:5f:a8:cb:54:5e:fd:9a:66:41:a8:
         64:51:3e:83:5c:af:33:4b:c1:26:a2:17:2e:dd:d2:7b:fc:99:
         26:ac:9d:c5:70:5c:71:11:e3:4d:f2:f6:71:73:fe:58:cb:47:
         2a:47:56:3d:9a:90:ad:67:19:6b:1f:1b:0d:44:92:b2:ca:96:
         74:62:e5:c8:ca:c0:a0:ec:58:09:52:4f:a5:e9:fc:1a:3e:6a:
         9d:2a:c4:35:31:fa:d2:47:36:cd:c0:ce:bb:57:6c:68:5c:59:
         82:6f:51:af:c1:a1:92:fa:78:73:a2:ee:86:47:72:4b:d8:7d:
         15:78:43:39:6f:07:ee:95:d1:79:81:22:d1:91:74:99:77:83:
         0f:23:5c:b3:81:c2:44:e2:b1:db:43:b2:4f:fd:53:eb:7e:20:
         6f:4a:78:a8:84:2b:e9:d2:7c:91:00:87:dc:76:de:62:b5:16:
         b7:ee:62:65:ef:99:c0:cd:8a:34:28:e8:72:64:29:39:e8:78:
         98:f9:23:2b:65:e2:b6:38:ba:88:c8:8a:9a:a0:db:19:a8:f3:
         ab:00:81:fe:38:e0:a3:00:d7:34:41:3a:44:90:38:fe:5d:e6:
         9d:4d:18:4a:5b:a8:7f:c4:bf:17:b8:63:1c:6b:38:b7:70:ba:
         e2:35:6e:11:ea:91:1a:57
-----BEGIN CERTIFICATE-----
MIIF8TCCA9mgAwIBAgICEgEwDQYJKoZIhvcNAQELBQAwgYkxCzAJBgNVBAYTAkNO
MT4wPAYDVQQKDDXmna3lt57lpKnosLfkv6Hmga/np5HmioDmnInpmZDlhazlj7go
5a6i5oi356uv5rWL6K+VKTESMBAGA1UEBwwJ5p2t5bee5biCMRIwEAYDVQQIDAnm
tZnmsZ/nnIExEjAQBgNVBAMMCVRHUm9vdF8wMTAeFw0xOTA4MDYxMTU2MTBaFw00
OTA3MjkxMTU2MTBaMIGHMQswCQYDVQQGEwJDTjE+MDwGA1UECgw15p2t5bee5aSp
6LC35L+h5oGv56eR5oqA5pyJ6ZmQ5YWs5Y+4KOWuouaIt+err+a1i+ivlSkxEDAO
BgNVBAMMB1RHQ0FfMDExEjAQBgNVBAcMCeadreW3nuW4gjESMBAGA1UECAwJ5rWZ
5rGf55yBMIICIjANBgkqhkiG9w0BAQEFAAOCAg8AMIICCgKCAgEAovb8lsCYNIru
yAES0GzVDNUo7R72ux+xl5O0JCI8pM2Agxz2oNgjoWLAMxd6jh5XYwA7aCGtsMH0
JQaqPUXQ0RisT2+/eEUlvgwuvcL4Rlb3BLl1ZTZBnmn/65kdjf9XnDlvXcJYlNKn
9ZjisKkx+VNykUOAw7Ab9j56UeDrQ9fX73vsaZqb+ZHyqBVIVuvlSW2ol/nX107K
5WpcECNE3jXFs+jFHVqa5pxl2R6roJJERgG9vbQGk+KcHLFI17/iRG0steDOt4fW
oKdCwjHUl41yqE8z4mInBN7Gt/WsbI+J+XdRWBAwVrUBwxucg8aCMLg74undBq2C
Y3IMnncJ8B6zDKrfvHOyKX8opEeDypWWLJQPo32/noXQjan2zvztC4kiKrcSE/jG
0npJKeFwMQaKJiYMlvbcoYKDihx9EBb7JiLfe41OwXzntCfp5botX/WHCbr8fMYM
VBIcDFQfR10ir8LPVIGLfzCsRBOCeZFjooz1pN42NkFhGIkJuCgp62RYqiGN4U12
A+X0/zHDAbmJtZKPRO0ODHBkC/JPTJqoK+0BhT7QT0BHf0aX1RDuuG6gyK21Kh1W
xZsCx8JS1x86k7MSOKC6WczxSMklFapeiUGlHSNYzz8y7uyMZvL0LGZh4Dpm5Uiz
Bgc+tRrCVVnf0RXd/DzeEV7qi8YH/a0CAwEAAaNjMGEwHQYDVR0OBBYEFAumWujA
NoY4ZuygrIqSDqaKACxgMB8GA1UdIwQYMBaAFHduJ7OAqNIqs0kUcCo5eGxFi0JN
MA8GA1UdEwEB/wQFMAMBAf8wDgYDVR0PAQH/BAQDAgGGMA0GCSqGSIb3DQEBCwUA
A4ICAQA5r8yC46GwKBoG61H4tnMK1VtqMi55veq6YCQO+1kCNt9rABdZOxOBxGko
9WGPc1OMw3H/hVkcpjcu1fUrrqTyO1/DKO5DSlfSDhOmWQekB4gwm4vsjsJUZo/k
IR6Nrf/Afd06UyhVA0gUcPKy2Btyujn3Icw8ZgDeQN25ChlrKT0pO3FnRUY+Bayx
XBeUL2xpRFWWfwNqkRT3mSGVnjGKNwBLdz/TEul8z3c55eMDxtshRo4iFwR6Q/xH
rx9xDhr210VJaD+fF1+nm2dPVxNnrXprj2BPWRhGscv/I87S3BkHL1AvWP3NP2Nb
v1HYCHPOu6C8uWJpLGyMGgFvYCzVi4O8B1+oy1Re/ZpmQahkUT6DXK8zS8Emohcu
3dJ7/JkmrJ3FcFxxEeNN8vZxc/5Yy0cqR1Y9mpCtZxlrHxsNRJKyypZ0YuXIysCg
7FgJUk+l6fwaPmqdKsQ1MfrSRzbNwM67V2xoXFmCb1GvwaGS+nhzou6GR3JL2H0V
eEM5bwfuldF5gSLRkXSZd4MPI1yzgcJE4rHbQ7JP/VPrfiBvSniohCvp0nyRAIfc
dt5itRa37mJl75nAzYo0KOhyZCk56HiY+SMrZeK2OLqIyIqaoNsZqPOrAIH+OOCj
ANc0QTpEkDj+XeadTRhKW6h/xL8XuGMcazi3cLriNW4R6pEaVw==
-----END CERTIFICATE-----
