Certificate:
    Data:
        Version: 3 (0x2)
        Serial Number: 286 (0x11e)
    Signature Algorithm: sha256WithRSAEncryption
        Issuer: C=CN, O=\xE6\xB5\x99\xE6\xB1\x9F\xE7\x9C\x81\xE6\x95\xB0\xE5\xAD\x97\xE8\xAE\xA4\xE8\xAF\x81\xE4\xB8\xAD\xE5\xBF\x83, L=\xE6\x9D\xAD\xE5\xB7\x9E\xE5\xB8\x82, ST=\xE6\xB5\x99\xE6\xB1\x9F\xE7\x9C\x81, CN=ZJRoot
        Validity
            Not Before: Dec 11 09:13:50 2018 GMT
            Not After : Dec  3 09:13:50 2048 GMT
        Subject: C=CN, O=\xE6\xB5\x99\xE6\xB1\x9F\xE7\x9C\x81\xE6\x95\xB0\xE5\xAD\x97\xE8\xAE\xA4\xE8\xAF\x81\xE4\xB8\xAD\xE5\xBF\x83, CN=ZJCA, L=\xE6\x9D\xAD\xE5\xB7\x9E\xE5\xB8\x82, ST=\xE6\xB5\x99\xE6\xB1\x9F\xE7\x9C\x81
        Subject Public Key Info:
            Public Key Algorithm: rsaEncryption
                Public-Key: (1024 bit)
                Modulus:
                    00:ce:f0:3b:f2:c1:a6:d0:19:dc:16:b6:0b:85:c0:
                    ca:c6:ae:fe:b4:e6:0b:62:44:00:8a:15:86:26:22:
                    94:11:71:c6:c2:fa:b5:fa:09:61:6b:ec:32:79:fd:
                    8a:28:51:ad:40:05:39:6f:c5:2f:b9:f3:92:a0:83:
                    be:d3:2b:39:96:b7:41:a8:44:88:0e:be:2a:1e:81:
                    6c:91:52:c9:d2:85:8c:74:cb:4f:15:66:6f:3e:d6:
                    29:ee:a2:e8:1d:21:0c:df:1f:09:0d:4e:a9:e6:d1:
                    32:a0:9f:3e:f2:1c:30:3b:d4:4d:e6:fd:fc:37:7b:
                    cf:58:7f:a8:7a:a1:0e:2a:c9
                Exponent: 65537 (0x10001)
        X509v3 extensions:
            X509v3 Subject Key Identifier: 
                41:94:7D:36:B0:FB:44:9C:66:A9:E4:80:B1:20:2F:7A:77:7A:9B:B8
            X509v3 Authority Key Identifier: 
                keyid:C0:00:31:6A:6B:8D:EB:DC:B8:87:5F:FC:B4:9B:FD:04:A3:8D:A9:6D

            X509v3 Basic Constraints: critical
                CA:TRUE
            X509v3 Key Usage: critical
                Digital Signature, Certificate Sign, CRL Sign
    Signature Algorithm: sha256WithRSAEncryption
         51:f0:45:fd:1d:19:8b:69:79:b2:61:77:6a:3d:3c:35:5b:ab:
         ea:de:7d:56:c8:dd:d3:06:0a:96:ae:60:5f:5d:f5:7a:77:00:
         0f:d8:13:ec:d2:f5:6b:4b:c8:ca:ec:f5:c3:63:e2:36:a9:3a:
         9b:24:13:62:35:f1:f7:95:c9:0e:55:29:6f:f7:96:46:65:07:
         b9:0b:a4:7b:86:c2:9d:1a:e5:49:85:2d:44:80:94:45:7b:00:
         1c:e7:71:c1:2f:2a:d1:6a:81:f1:67:10:31:94:56:79:e6:ba:
         b2:df:9e:81:96:5b:ec:62:00:7d:96:26:4d:a4:7a:a3:e3:00:
         81:b6
-----BEGIN CERTIFICATE-----
MIICsDCCAhmgAwIBAgICAR4wDQYJKoZIhvcNAQELBQAwbDELMAkGA1UEBhMCQ04x
JDAiBgNVBAoMG+a1meaxn+ecgeaVsOWtl+iupOivgeS4reW/gzESMBAGA1UEBwwJ
5p2t5bee5biCMRIwEAYDVQQIDAnmtZnmsZ/nnIExDzANBgNVBAMMBlpKUm9vdDAe
Fw0xODEyMTEwOTEzNTBaFw00ODEyMDMwOTEzNTBaMGoxCzAJBgNVBAYTAkNOMSQw
IgYDVQQKDBvmtZnmsZ/nnIHmlbDlrZforqTor4HkuK3lv4MxDTALBgNVBAMMBFpK
Q0ExEjAQBgNVBAcMCeadreW3nuW4gjESMBAGA1UECAwJ5rWZ5rGf55yBMIGfMA0G
CSqGSIb3DQEBAQUAA4GNADCBiQKBgQDO8DvywabQGdwWtguFwMrGrv605gtiRACK
FYYmIpQRccbC+rX6CWFr7DJ5/YooUa1ABTlvxS+585Kgg77TKzmWt0GoRIgOvioe
gWyRUsnShYx0y08VZm8+1inuougdIQzfHwkNTqnm0TKgnz7yHDA71E3m/fw3e89Y
f6h6oQ4qyQIDAQABo2MwYTAdBgNVHQ4EFgQUQZR9NrD7RJxmqeSAsSAvend6m7gw
HwYDVR0jBBgwFoAUwAAxamuN69y4h1/8tJv9BKONqW0wDwYDVR0TAQH/BAUwAwEB
/zAOBgNVHQ8BAf8EBAMCAYYwDQYJKoZIhvcNAQELBQADgYEAUfBF/R0Zi2l5smF3
aj08NVur6t59Vsjd0wYKlq5gX131encAD9gT7NL1a0vIyuz1w2PiNqk6myQTYjXx
95XJDlUpb/eWRmUHuQuke4bCnRrlSYUtRICURXsAHOdxwS8q0WqB8WcQMZRWeea6
st+egZZb7GIAfZYmTaR6o+MAgbY=
-----END CERTIFICATE-----
