Certificate:
    Data:
        Version: 3 (0x2)
        Serial Number: 286 (0x11e)
    Signature Algorithm: sha256WithRSAEncryption
        Issuer: C=CN, O=\xE6\xB5\x99\xE6\xB1\x9F\xE7\x9C\x81\xE6\x95\xB0\xE5\xAD\x97\xE8\xAE\xA4\xE8\xAF\x81\xE4\xB8\xAD\xE5\xBF\x83, L=\xE6\x9D\xAD\xE5\xB7\x9E\xE5\xB8\x82, ST=\xE6\xB5\x99\xE6\xB1\x9F\xE7\x9C\x81, CN=ZJRoot
        Validity
            Not Before: Dec 11 09:18:40 2018 GMT
            Not After : Dec  3 09:18:40 2048 GMT
        Subject: C=CN, O=\xE6\xB5\x99\xE6\xB1\x9F\xE7\x9C\x81\xE6\x95\xB0\xE5\xAD\x97\xE8\xAE\xA4\xE8\xAF\x81\xE4\xB8\xAD\xE5\xBF\x83, CN=ZJCA, L=\xE6\x9D\xAD\xE5\xB7\x9E\xE5\xB8\x82, ST=\xE6\xB5\x99\xE6\xB1\x9F\xE7\x9C\x81
        Subject Public Key Info:
            Public Key Algorithm: rsaEncryption
                Public-Key: (1024 bit)
                Modulus:
                    00:d1:90:9b:19:2b:3b:04:ed:6e:71:74:12:1b:f5:
                    ff:ea:05:31:5c:8e:f2:12:24:ba:e2:18:32:b3:d9:
                    ce:14:86:9c:78:0f:78:ce:ca:fd:79:11:71:58:7d:
                    f5:84:b6:40:dd:03:fe:44:d8:1e:07:db:34:d2:03:
                    b5:21:bb:de:c1:54:32:e4:71:08:ee:b5:e0:cd:19:
                    b6:af:fc:04:9a:56:6a:87:6d:40:8e:4b:73:7a:64:
                    cd:a0:f5:9a:65:14:d2:71:0c:76:85:4a:56:d6:95:
                    d3:09:c5:ea:d5:25:26:45:90:57:16:a3:29:bf:f9:
                    b6:58:6f:e7:50:a7:ec:54:ab
                Exponent: 65537 (0x10001)
        X509v3 extensions:
            X509v3 Subject Key Identifier: 
                3A:B4:56:73:03:2B:DF:24:11:53:F5:F4:B9:15:2C:14:FF:D0:6D:A6
            X509v3 Authority Key Identifier: 
                keyid:E1:17:CA:E2:02:EE:17:86:35:2E:44:75:D7:88:BA:90:BB:C0:8F:3E

            X509v3 Basic Constraints: critical
                CA:TRUE
            X509v3 Key Usage: critical
                Digital Signature, Certificate Sign, CRL Sign
    Signature Algorithm: sha256WithRSAEncryption
         db:b3:57:87:ca:86:7d:41:78:61:e5:ca:33:cc:11:1f:62:01:
         30:d6:7c:53:05:a5:23:61:2e:fd:44:33:bd:f0:3e:3c:1f:29:
         f5:9e:ae:6a:b3:75:c3:3b:ff:7f:41:bc:af:0e:26:5d:be:79:
         0e:8c:7d:9b:b8:44:71:6f:09:e3:b3:0b:b2:92:dc:99:cb:e9:
         27:95:12:83:52:72:7b:cd:9e:41:2d:41:48:5d:40:29:d9:fe:
         e4:5c:14:9b:39:8c:44:75:9f:e5:d5:f8:d2:c6:6f:10:bd:f9:
         bd:76:fd:69:bc:61:bf:97:29:84:db:ee:5b:7d:b9:83:4a:d3:
         2a:be
-----BEGIN CERTIFICATE-----
MIICsDCCAhmgAwIBAgICAR4wDQYJKoZIhvcNAQELBQAwbDELMAkGA1UEBhMCQ04x
JDAiBgNVBAoMG+a1meaxn+ecgeaVsOWtl+iupOivgeS4reW/gzESMBAGA1UEBwwJ
5p2t5bee5biCMRIwEAYDVQQIDAnmtZnmsZ/nnIExDzANBgNVBAMMBlpKUm9vdDAe
Fw0xODEyMTEwOTE4NDBaFw00ODEyMDMwOTE4NDBaMGoxCzAJBgNVBAYTAkNOMSQw
IgYDVQQKDBvmtZnmsZ/nnIHmlbDlrZforqTor4HkuK3lv4MxDTALBgNVBAMMBFpK
Q0ExEjAQBgNVBAcMCeadreW3nuW4gjESMBAGA1UECAwJ5rWZ5rGf55yBMIGfMA0G
CSqGSIb3DQEBAQUAA4GNADCBiQKBgQDRkJsZKzsE7W5xdBIb9f/qBTFcjvISJLri
GDKz2c4Uhpx4D3jOyv15EXFYffWEtkDdA/5E2B4H2zTSA7Uhu97BVDLkcQjuteDN
Gbav/ASaVmqHbUCOS3N6ZM2g9ZplFNJxDHaFSlbWldMJxerVJSZFkFcWoym/+bZY
b+dQp+xUqwIDAQABo2MwYTAdBgNVHQ4EFgQUOrRWcwMr3yQRU/X0uRUsFP/QbaYw
HwYDVR0jBBgwFoAU4RfK4gLuF4Y1LkR114i6kLvAjz4wDwYDVR0TAQH/BAUwAwEB
/zAOBgNVHQ8BAf8EBAMCAYYwDQYJKoZIhvcNAQELBQADgYEA27NXh8qGfUF4YeXK
M8wRH2IBMNZ8UwWlI2Eu/UQzvfA+PB8p9Z6uarN1wzv/f0G8rw4mXb55Dox9m7hE
cW8J47MLspLcmcvpJ5USg1Jye82eQS1BSF1AKdn+5FwUmzmMRHWf5dX40sZvEL35
vXb9abxhv5cphNvuW325g0rTKr4=
-----END CERTIFICATE-----
